target datalayout = "e-m:e-p270:32:32-p271:32:32-p272:64:64-i64:64-i128:128-f80:128-n8:16:32:64-S128"
target triple = "x86_64-unknown-linux-gnu"

%"class.icu_75::ScriptSet" = type { [7 x i32] }

; Function Attrs: mustprogress nounwind uwtable
define noundef i32 @_ZNK6icu_759ScriptSet12countMembersEv(ptr noundef nonnull align 4 dereferenceable(28) %this) #0 align 2 {
entry:
  %this.addr = alloca ptr, align 8
  %count = alloca i32, align 4
  %i = alloca i32, align 4
  %x = alloca i32, align 4
  store ptr %this, ptr %this.addr, align 8
  %this1 = load ptr, ptr %this.addr, align 8
  store i32 0, ptr %count, align 4
  store i32 0, ptr %i, align 4
  br label %for.cond

for.cond:                                         ; preds = %for.inc, %entry
  %0 = load i32, ptr %i, align 4
  %cmp = icmp ult i32 %0, 7
  br i1 %cmp, label %for.body, label %for.end

for.body:                                         ; preds = %for.cond
  %bits = getelementptr inbounds %"class.icu_75::ScriptSet", ptr %this1, i32 0, i32 0
  %1 = load i32, ptr %i, align 4
  %idxprom = zext i32 %1 to i64
  %arrayidx = getelementptr inbounds [7 x i32], ptr %bits, i64 0, i64 %idxprom
  %2 = load i32, ptr %arrayidx, align 4
  store i32 %2, ptr %x, align 4
  br label %while.cond

while.cond:                                       ; preds = %while.body, %for.body
  %3 = load i32, ptr %x, align 4
  %cmp2 = icmp ugt i32 %3, 0
  br i1 %cmp2, label %while.body, label %while.end

while.body:                                       ; preds = %while.cond
  %4 = load i32, ptr %count, align 4
  %inc = add nsw i32 %4, 1
  store i32 %inc, ptr %count, align 4
  %5 = load i32, ptr %x, align 4
  %sub = sub i32 %5, 1
  %6 = load i32, ptr %x, align 4
  %and = and i32 %6, %sub
  store i32 %and, ptr %x, align 4
  br label %while.cond, !llvm.loop !10

while.end:                                        ; preds = %while.cond
  br label %for.inc

for.inc:                                          ; preds = %while.end
  %7 = load i32, ptr %i, align 4
  %inc3 = add i32 %7, 1
  store i32 %inc3, ptr %i, align 4
  br label %for.cond, !llvm.loop !11

for.end:                                          ; preds = %for.cond
  %8 = load i32, ptr %count, align 4
  ret i32 %8
}