; Function Attrs: mustprogress nofree norecurse nosync nounwind willreturn memory(argmem: read) uwtable
define noundef i32 @_ZNK6icu_759ScriptSet12countMembersEv(ptr nocapture noundef nonnull readonly align 4 dereferenceable(28) %this) local_unnamed_addr #5 align 2 {
entry:
  br label %for.body

for.body:                                         ; preds = %entry, %for.inc
  %indvars.iv = phi i64 [ 0, %entry ], [ %indvars.iv.next, %for.inc ]
  %count.09 = phi i32 [ 0, %entry ], [ %count.1.lcssa, %for.inc ]
  %arrayidx = getelementptr inbounds [7 x i32], ptr %this, i64 0, i64 %indvars.iv
  %0 = load i32, ptr %arrayidx, align 4
  %cmp2.not6 = icmp eq i32 %0, 0
  br i1 %cmp2.not6, label %for.inc, label %while.body

while.body:                                       ; preds = %for.body, %while.body
  %x.08 = phi i32 [ %and, %while.body ], [ %0, %for.body ]
  %count.17 = phi i32 [ %inc, %while.body ], [ %count.09, %for.body ]
  %inc = add nsw i32 %count.17, 1
  %sub = add i32 %x.08, -1
  %and = and i32 %sub, %x.08
  %cmp2.not = icmp eq i32 %and, 0
  br i1 %cmp2.not, label %for.inc, label %while.body, !llvm.loop !9

for.inc:                                          ; preds = %while.body, %for.body
  %count.1.lcssa = phi i32 [ %count.09, %for.body ], [ %inc, %while.body ]
  %indvars.iv.next = add nuw nsw i64 %indvars.iv, 1
  %exitcond.not = icmp eq i64 %indvars.iv.next, 7
  br i1 %exitcond.not, label %for.end, label %for.body, !llvm.loop !10

for.end:                                          ; preds = %for.inc
  ret i32 %count.1.lcssa
}